target datalayout = "e-m:e-p270:32:32-p271:32:32-p272:64:64-i64:64-i128:128-f80:128-n8:16:32:64-S128"
target triple = "x86_64-pc-linux-gnu"

@bootTime_ms = internal global i64 0, align 8
@clock_ticks_per_second = internal global i64 0, align 8
@.str = private unnamed_addr constant [14 x i8] c"/proc/%d/stat\00", align 1
@.str.1 = private unnamed_addr constant [2 x i8] c"r\00", align 1
@.str.2 = private unnamed_addr constant [81 x i8] c" %*c %d %*d %*d %*d %*d %*d %*u %*u %*u %*u %lu %lu %*d %*d %*d %*d %*d %*d %llu\00", align 1

; Function Attrs: nounwind uwtable
define hidden i32 @os_getParentPidAndTimings(ptr noundef %0, i32 noundef %1, ptr noundef %2, ptr noundef %3) #0 {
  %5 = alloca i32, align 4
  %6 = alloca ptr, align 8
  %7 = alloca i32, align 4
  %8 = alloca ptr, align 8
  %9 = alloca ptr, align 8
  %10 = alloca ptr, align 8
  %11 = alloca [2048 x i8], align 16
  %12 = alloca i32, align 4
  %13 = alloca [32 x i8], align 16
  %14 = alloca ptr, align 8
  %15 = alloca i32, align 4
  %16 = alloca i64, align 8
  %17 = alloca i64, align 8
  %18 = alloca i64, align 8
  store ptr %0, ptr %6, align 8
  store i32 %1, ptr %7, align 4
  store ptr %2, ptr %8, align 8
  store ptr %3, ptr %9, align 8
  store i64 0, ptr %16, align 8
  store i64 0, ptr %17, align 8
  store i64 0, ptr %18, align 8
  %19 = getelementptr inbounds [32 x i8], ptr %13, i64 0, i64 0
  %20 = load i32, ptr %7, align 4
  %21 = call i32 (ptr, i64, ptr, ...) @snprintf(ptr noundef %19, i64 noundef 32, ptr noundef @.str, i32 noundef %20) #6
  %22 = getelementptr inbounds [32 x i8], ptr %13, i64 0, i64 0
  %23 = call noalias ptr @fopen64(ptr noundef %22, ptr noundef @.str.1)
  store ptr %23, ptr %10, align 8
  %24 = load ptr, ptr %10, align 8
  %25 = icmp eq ptr %24, null
  br i1 %25, label %26, label %27

26:                                               ; preds = %4
  store i32 -1, ptr %5, align 4
  br label %77

27:                                               ; preds = %4
  %28 = getelementptr inbounds [2048 x i8], ptr %11, i64 0, i64 0
  %29 = load ptr, ptr %10, align 8
  %30 = call i64 @fread(ptr noundef %28, i64 noundef 1, i64 noundef 2047, ptr noundef %29)
  %31 = trunc i64 %30 to i32
  store i32 %31, ptr %12, align 4
  %32 = load ptr, ptr %10, align 8
  %33 = call i32 @fclose(ptr noundef %32)
  %34 = load i32, ptr %12, align 4
  %35 = icmp slt i32 %34, 0
  br i1 %35, label %36, label %37

36:                                               ; preds = %27
  store i32 -1, ptr %5, align 4
  br label %77

37:                                               ; preds = %27
  %38 = load i32, ptr %12, align 4
  %39 = sext i32 %38 to i64
  %40 = getelementptr inbounds [2048 x i8], ptr %11, i64 0, i64 %39
  store i8 0, ptr %40, align 1
  %41 = getelementptr inbounds [2048 x i8], ptr %11, i64 0, i64 0
  %42 = call ptr @strchr(ptr noundef %41, i32 noundef 40) #7
  store ptr %42, ptr %14, align 8
  %43 = load ptr, ptr %14, align 8
  %44 = icmp eq ptr %43, null
  br i1 %44, label %45, label %46

45:                                               ; preds = %37
  store i32 -1, ptr %5, align 4
  br label %77

46:                                               ; preds = %37
  %47 = load ptr, ptr %14, align 8
  %48 = getelementptr inbounds i8, ptr %47, i32 1
  store ptr %48, ptr %14, align 8
  %49 = load ptr, ptr %14, align 8
  %50 = call ptr @strrchr(ptr noundef %49, i32 noundef 41) #7
  store ptr %50, ptr %14, align 8
  %51 = load ptr, ptr %14, align 8
  %52 = icmp eq ptr %51, null
  br i1 %52, label %53, label %54

53:                                               ; preds = %46
  store i32 -1, ptr %5, align 4
  br label %77

54:                                               ; preds = %46
  %55 = load ptr, ptr %14, align 8
  %56 = getelementptr inbounds i8, ptr %55, i32 1
  store ptr %56, ptr %14, align 8
  %57 = load ptr, ptr %14, align 8
  %58 = call i32 (ptr, ptr, ...) @__isoc99_sscanf(ptr noundef %57, ptr noundef @.str.2, ptr noundef %15, ptr noundef %16, ptr noundef %17, ptr noundef %18) #6
  %59 = icmp ne i32 4, %58
  br i1 %59, label %60, label %61

60:                                               ; preds = %54
  store i32 0, ptr %5, align 4
  br label %77

61:                                               ; preds = %54
  %62 = load i64, ptr %16, align 8
  %63 = load i64, ptr %17, align 8
  %64 = add i64 %62, %63
  %65 = load i64, ptr @clock_ticks_per_second, align 8
  %66 = sdiv i64 1000000000, %65
  %67 = mul i64 %64, %66
  %68 = load ptr, ptr %8, align 8
  store i64 %67, ptr %68, align 8
  %69 = load i64, ptr @bootTime_ms, align 8
  %70 = load i64, ptr %18, align 8
  %71 = mul i64 %70, 1000
  %72 = load i64, ptr @clock_ticks_per_second, align 8
  %73 = udiv i64 %71, %72
  %74 = add i64 %69, %73
  %75 = load ptr, ptr %9, align 8
  store i64 %74, ptr %75, align 8
  %76 = load i32, ptr %15, align 4
  store i32 %76, ptr %5, align 4
  br label %77

77:                                               ; preds = %61, %60, %53, %45, %36, %26
  %78 = load i32, ptr %5, align 4
  ret i32 %78
}