; Function Attrs: nofree nounwind uwtable
define hidden i32 @os_getParentPidAndTimings(ptr nocapture noundef readnone %0, i32 noundef %1, ptr nocapture noundef writeonly %2, ptr nocapture noundef writeonly %3) local_unnamed_addr #3 {
  %5 = alloca [2048 x i8], align 16
  %6 = alloca [32 x i8], align 16
  %7 = alloca i32, align 4
  %8 = alloca i64, align 8
  %9 = alloca i64, align 8
  %10 = alloca i64, align 8
  store i64 0, ptr %8, align 8
  store i64 0, ptr %9, align 8
  store i64 0, ptr %10, align 8
  %11 = call i32 (ptr, i64, ptr, ...) @snprintf(ptr noundef nonnull dereferenceable(1) %6, i64 noundef 32, ptr noundef nonnull @.str, i32 noundef %1) #13
  %12 = call noalias ptr @fopen64(ptr noundef nonnull %6, ptr noundef nonnull @.str.1)
  %13 = icmp eq ptr %12, null
  br i1 %13, label %43, label %14

14:                                               ; preds = %4
  %15 = call i64 @fread(ptr noundef nonnull %5, i64 noundef 1, i64 noundef 2047, ptr noundef nonnull %12)
  %16 = tail call i32 @fclose(ptr noundef nonnull %12)
  %17 = and i64 %15, 2147483648
  %.not = icmp eq i64 %17, 0
  br i1 %.not, label %18, label %43

18:                                               ; preds = %14
  %19 = and i64 %15, 2147483647
  %20 = getelementptr inbounds [2048 x i8], ptr %5, i64 0, i64 %19
  store i8 0, ptr %20, align 1
  %21 = call ptr @strchr(ptr noundef nonnull dereferenceable(1) %5, i32 noundef 40) #14
  %22 = icmp eq ptr %21, null
  br i1 %22, label %43, label %23

23:                                               ; preds = %18
  %24 = getelementptr inbounds i8, ptr %21, i64 1
  %25 = call ptr @strrchr(ptr noundef nonnull dereferenceable(1) %24, i32 noundef 41) #14
  %26 = icmp eq ptr %25, null
  br i1 %26, label %43, label %27

27:                                               ; preds = %23
  %28 = getelementptr inbounds i8, ptr %25, i64 1
  %29 = call i32 (ptr, ptr, ...) @__isoc99_sscanf(ptr noundef nonnull %28, ptr noundef nonnull @.str.2, ptr noundef nonnull %7, ptr noundef nonnull %8, ptr noundef nonnull %9, ptr noundef nonnull %10) #13
  %.not18 = icmp eq i32 %29, 4
  br i1 %.not18, label %30, label %43

30:                                               ; preds = %27
  %31 = load i64, ptr %8, align 8
  %32 = load i64, ptr %9, align 8
  %33 = add i64 %32, %31
  %34 = load i64, ptr @clock_ticks_per_second, align 8
  %35 = sdiv i64 1000000000, %34
  %36 = mul i64 %35, %33
  store i64 %36, ptr %2, align 8
  %37 = load i64, ptr @bootTime_ms, align 8
  %38 = load i64, ptr %10, align 8
  %39 = mul i64 %38, 1000
  %40 = udiv i64 %39, %34
  %41 = add i64 %40, %37
  store i64 %41, ptr %3, align 8
  %42 = load i32, ptr %7, align 4
  br label %43

43:                                               ; preds = %27, %23, %18, %14, %4, %30
  %.0 = phi i32 [ %42, %30 ], [ -1, %4 ], [ -1, %14 ], [ -1, %18 ], [ -1, %23 ], [ 0, %27 ]
  ret i32 %.0
}